; Function Attrs: mustprogress nofree norecurse nosync nounwind willreturn memory(argmem: write) uwtable
define void @_ZN8LightGBM10CreateNoneERKNS_25PredictionEarlyStopConfigE(ptr dead_on_unwind noalias writable writeonly sret(%"struct.LightGBM::PredictionEarlyStopInstance") align 8 captures(none) initializes((0, 36)) %0, ptr noundef nonnull readnone align 8 captures(none) dereferenceable(16) %1) local_unnamed_addr #3 personality ptr @__gxx_personality_v0 {
  %3 = getelementptr inbounds nuw i8, ptr %0, i64 16
  %4 = getelementptr inbounds nuw i8, ptr %0, i64 24
  tail call void @llvm.memset.p0.i64(ptr noundef nonnull align 8 dereferenceable(32) %0, i8 0, i64 16, i1 false)
  store ptr @"_ZNSt17_Function_handlerIFbPKdiEZN8LightGBM10CreateNoneERKNS3_25PredictionEarlyStopConfigEE3$_0E9_M_invokeERKSt9_Any_dataOS1_Oi", ptr %4, align 8, !tbaa !4
  store ptr @"_ZNSt17_Function_handlerIFbPKdiEZN8LightGBM10CreateNoneERKNS3_25PredictionEarlyStopConfigEE3$_0E10_M_managerERSt9_Any_dataRKS9_St18_Manager_operation", ptr %3, align 8, !tbaa !10
  %5 = getelementptr inbounds nuw i8, ptr %0, i64 32
  store i32 2147483647, ptr %5, align 8, !tbaa !11
  ret void
}